ccopy_reg
_reconstructor
p1
(cxmppd.modules.db_fake
DictWatch
p2
c__builtin__
dict
p3
(dp4
S'127.0.0.1'
p5
g1
(g2
g3
(dp6
S'acc'
p7
g1
(g2
g3
(dp8
S'name'
p9
S'ACC'
p10
sS'groups'
p11
g1
(g2
g3
(dtRp12
sS'roster'
p13
g1
(g2
g3
(dtRp14
sS'anon_allow'
p15
S'yes'
p16
sS'password'
p17
S'rddJrsUp'
p18
sS'storage'
p19
g1
(g2
g3
(dtRp20
stRp21
sS'df'
p22
g1
(g2
g3
(dp23
g9
S'DF'
p24
sg11
g1
(g2
g3
(dtRp25
sg13
g1
(g2
g3
(dtRp26
sg15
g16
sg17
S'eABqtDgl'
p27
sg19
g1
(g2
g3
(dtRp28
stRp29
sVdata_analyst_nn
p30
g1
(g2
g3
(dp31
g9
Vdata_analyst_nn
p32
sg11
g1
(g2
g3
(dtRp33
sg13
g1
(g2
g3
(dp34
Vams.127.0.0.1
p35
(dp36
S'state'
p37
S''
sS'subscription'
p38
S'to'
p39
sstRp40
sg15
g16
sg17
Vsecret
p41
sg19
g1
(g2
g3
(dtRp42
stRp43
sVdata_wrangler
p44
g1
(g2
g3
(dp45
g9
Vdata_wrangler
p46
sg11
g1
(g2
g3
(dtRp47
sg13
g1
(g2
g3
(dp48
Vams.127.0.0.1
p49
(dp50
g37
S''
sg38
g39
sstRp51
sg15
g16
sg17
Vsecret
p52
sg19
g1
(g2
g3
(dtRp53
stRp54
sVdata_analyst_svr
p55
g1
(g2
g3
(dp56
g9
Vdata_analyst_svr
p57
sg11
g1
(g2
g3
(dtRp58
sg13
g1
(g2
g3
(dp59
Vams.127.0.0.1
p60
(dp61
g37
S''
sg38
g39
sstRp62
sg15
g16
sg17
Vsecret
p63
sg19
g1
(g2
g3
(dtRp64
stRp65
sVdata_manager
p66
g1
(g2
g3
(dp67
g9
Vdata_manager
p68
sg11
g1
(g2
g3
(dtRp69
sg13
g1
(g2
g3
(dp70
Vams.127.0.0.1
p71
(dp72
g37
S''
sg38
g39
sstRp73
sg15
g16
sg17
Vsecret
p74
sg19
g1
(g2
g3
(dtRp75
stRp76
sVfund_manager
p77
g1
(g2
g3
(dp78
g9
Vfund_manager
p79
sg11
g1
(g2
g3
(dtRp80
sg13
g1
(g2
g3
(dp81
Vams.127.0.0.1
p82
(dp83
g37
S''
sg38
g39
sstRp84
sg15
g16
sg17
Vsecret
p85
sg19
g1
(g2
g3
(dtRp86
stRp87
sS'ams'
p88
g1
(g2
g3
(dp89
g9
S'AMS'
p90
sg11
g1
(g2
g3
(dtRp91
sg13
g1
(g2
g3
(dp92
S'data_analyst_svr@127.0.0.1'
p93
(dp94
g37
S''
sg38
S'from'
p95
ssS'data_analyst_nn@127.0.0.1'
p96
(dp97
g37
S''
sg38
g95
ssS'fund_manager@127.0.0.1'
p98
(dp99
g37
S''
sg38
g95
ssS'data_wrangler@127.0.0.1'
p100
(dp101
g37
S''
sg38
g95
ssS'data_manager@127.0.0.1'
p102
(dp103
g37
S''
sg38
g95
sstRp104
sg15
g16
sg17
S'MVaLuzTT'
p105
sg19
g1
(g2
g3
(dtRp106
stRp107
sS'__ir__'
p108
(dp109
g15
g16
sg17
S'test'
p110
sg19
(dp111
S'karma'
p112
(dp113
S'down'
p114
I307200
sS'tot_up'
p115
I0
sS'tot_down'
p116
I0
sS'up'
p117
I307200307200307200
sS'last_time'
p118
F0
sssg11
(dp119
sg13
(dp120
sstRp121
stRp122
.